target datalayout = "e-m:e-p270:32:32-p271:32:32-p272:64:64-i64:64-i128:128-f80:128-n8:16:32:64-S128"
target triple = "x86_64-pc-linux-gnu"

@.str.4 = private unnamed_addr constant [2 x i8] c"\0A\00", align 1
@.str.5 = private unnamed_addr constant [30 x i8] c"    synth_fabulous [options]\0A\00", align 1
@.str.6 = private unnamed_addr constant [101 x i8] c"This command runs synthesis for FPGA fabrics generated with FABulous. This command does not operate\0A\00", align 1
@.str.7 = private unnamed_addr constant [29 x i8] c"on partly selected designs.\0A\00", align 1
@.str.8 = private unnamed_addr constant [19 x i8] c"    -top <module>\0A\00", align 1
@.str.9 = private unnamed_addr constant [64 x i8] c"        use the specified module as top module (default='top')\0A\00", align 1
@.str.10 = private unnamed_addr constant [15 x i8] c"    -auto-top\0A\00", align 1
@.str.11 = private unnamed_addr constant [65 x i8] c"        automatically determine the top of the design hierarchy\0A\00", align 1
@.str.12 = private unnamed_addr constant [18 x i8] c"    -blif <file>\0A\00", align 1
@.str.13 = private unnamed_addr constant [80 x i8] c"        write the design to the specified BLIF file. writing of an output file\0A\00", align 1
@.str.14 = private unnamed_addr constant [56 x i8] c"        is omitted if this parameter is not specified.\0A\00", align 1
@.str.15 = private unnamed_addr constant [18 x i8] c"    -edif <file>\0A\00", align 1
@.str.16 = private unnamed_addr constant [80 x i8] c"        write the design to the specified EDIF file. writing of an output file\0A\00", align 1
@.str.17 = private unnamed_addr constant [18 x i8] c"    -json <file>\0A\00", align 1
@.str.18 = private unnamed_addr constant [80 x i8] c"        write the design to the specified JSON file. writing of an output file\0A\00", align 1
@.str.19 = private unnamed_addr constant [14 x i8] c"    -lut <k>\0A\00", align 1
@.str.20 = private unnamed_addr constant [65 x i8] c"        perform synthesis for a k-LUT architecture (default 4).\0A\00", align 1
@.str.21 = private unnamed_addr constant [10 x i8] c"    -vpr\0A\00", align 1
@.str.22 = private unnamed_addr constant [93 x i8] c"        perform synthesis for the FABulous VPR flow (using slightly different techmapping).\0A\00", align 1
@.str.23 = private unnamed_addr constant [33 x i8] c"    -plib <primitive_library.v>\0A\00", align 1
@.str.24 = private unnamed_addr constant [64 x i8] c"        use the specified Verilog file as a primitive library.\0A\00", align 1
@.str.25 = private unnamed_addr constant [39 x i8] c"    -extra-plib <primitive_library.v>\0A\00", align 1
@.str.26 = private unnamed_addr constant [88 x i8] c"        use the specified Verilog file for extra primitives (can be specified multiple\0A\00", align 1
@.str.27 = private unnamed_addr constant [17 x i8] c"        times).\0A\00", align 1
@.str.28 = private unnamed_addr constant [28 x i8] c"    -extra-map <techamp.v>\0A\00", align 1
@.str.29 = private unnamed_addr constant [91 x i8] c"        use the specified Verilog file for extra techmap rules (can be specified multiple\0A\00", align 1
@.str.30 = private unnamed_addr constant [21 x i8] c"    -encfile <file>\0A\00", align 1
@.str.31 = private unnamed_addr constant [42 x i8] c"        passed to 'fsm_recode' via 'fsm'\0A\00", align 1
@.str.32 = private unnamed_addr constant [12 x i8] c"    -nofsm\0A\00", align 1
@.str.33 = private unnamed_addr constant [37 x i8] c"        do not run FSM optimization\0A\00", align 1
@.str.34 = private unnamed_addr constant [16 x i8] c"    -noalumacc\0A\00", align 1
@.str.35 = private unnamed_addr constant [70 x i8] c"        do not run 'alumacc' pass. i.e. keep arithmetic operators in\0A\00", align 1
@.str.36 = private unnamed_addr constant [47 x i8] c"        their direct form ($add, $sub, etc.).\0A\00", align 1
@.str.37 = private unnamed_addr constant [22 x i8] c"    -carry <none|ha>\0A\00", align 1
@.str.38 = private unnamed_addr constant [67 x i8] c"        carry mapping style (none, half-adders, ...) default=none\0A\00", align 1
@.str.39 = private unnamed_addr constant [16 x i8] c"    -noregfile\0A\00", align 1
@.str.40 = private unnamed_addr constant [35 x i8] c"        do not map register files\0A\00", align 1
@.str.41 = private unnamed_addr constant [12 x i8] c"    -iopad\0A\00", align 1
@.str.42 = private unnamed_addr constant [71 x i8] c"        enable automatic insertion of IO buffers (otherwise a wrapper\0A\00", align 1
@.str.43 = private unnamed_addr constant [68 x i8] c"        with manually inserted and constrained IO should be used.)\0A\00", align 1
@.str.44 = private unnamed_addr constant [18 x i8] c"    -complex-dff\0A\00", align 1
@.str.45 = private unnamed_addr constant [77 x i8] c"        enable support for FFs with enable and synchronous SR (must also be\0A\00", align 1
@.str.46 = private unnamed_addr constant [42 x i8] c"        supported by the target fabric.)\0A\00", align 1
@.str.47 = private unnamed_addr constant [16 x i8] c"    -noflatten\0A\00", align 1
@.str.48 = private unnamed_addr constant [49 x i8] c"        do not flatten design after elaboration\0A\00", align 1
@.str.49 = private unnamed_addr constant [13 x i8] c"    -nordff\0A\00", align 1
@.str.50 = private unnamed_addr constant [77 x i8] c"        passed to 'memory'. prohibits merging of FFs into memory read ports\0A\00", align 1
@.str.51 = private unnamed_addr constant [14 x i8] c"    -noshare\0A\00", align 1
@.str.52 = private unnamed_addr constant [47 x i8] c"        do not run SAT-based resource sharing\0A\00", align 1
@.str.53 = private unnamed_addr constant [36 x i8] c"    -run <from_label>[:<to_label>]\0A\00", align 1
@.str.54 = private unnamed_addr constant [72 x i8] c"        only run the commands between the labels (see below). an empty\0A\00", align 1
@.str.55 = private unnamed_addr constant [68 x i8] c"        from label is synonymous to 'begin', and empty to label is\0A\00", align 1
@.str.56 = private unnamed_addr constant [52 x i8] c"        synonymous to the end of the command list.\0A\00", align 1
@.str.57 = private unnamed_addr constant [18 x i8] c"    -no-rw-check\0A\00", align 1
@.str.58 = private unnamed_addr constant [72 x i8] c"        marks all recognized read ports as \22return don't-care value on\0A\00", align 1
@.str.59 = private unnamed_addr constant [71 x i8] c"        read/write collision\22 (same result as setting the no_rw_check\0A\00", align 1
@.str.60 = private unnamed_addr constant [37 x i8] c"        attribute on all memories).\0A\00", align 1
@.str.61 = private unnamed_addr constant [64 x i8] c"The following commands are executed by this synthesis command:\0A\00", align 1

; Function Attrs: mustprogress uwtable
define internal void @_ZN12_GLOBAL__N_19SynthPass4helpEv(ptr noundef nonnull align 8 dereferenceable(472) %0) unnamed_addr #4 align 2 {
  %2 = alloca ptr, align 8
  store ptr %0, ptr %2, align 8, !tbaa !6
  %3 = load ptr, ptr %2, align 8
  call void (ptr, ...) @_ZN5Yosys3logEPKcz(ptr noundef @.str.4)
  call void (ptr, ...) @_ZN5Yosys3logEPKcz(ptr noundef @.str.5)
  call void (ptr, ...) @_ZN5Yosys3logEPKcz(ptr noundef @.str.4)
  call void (ptr, ...) @_ZN5Yosys3logEPKcz(ptr noundef @.str.6)
  call void (ptr, ...) @_ZN5Yosys3logEPKcz(ptr noundef @.str.7)
  call void (ptr, ...) @_ZN5Yosys3logEPKcz(ptr noundef @.str.4)
  call void (ptr, ...) @_ZN5Yosys3logEPKcz(ptr noundef @.str.8)
  call void (ptr, ...) @_ZN5Yosys3logEPKcz(ptr noundef @.str.9)
  call void (ptr, ...) @_ZN5Yosys3logEPKcz(ptr noundef @.str.4)
  call void (ptr, ...) @_ZN5Yosys3logEPKcz(ptr noundef @.str.10)
  call void (ptr, ...) @_ZN5Yosys3logEPKcz(ptr noundef @.str.11)
  call void (ptr, ...) @_ZN5Yosys3logEPKcz(ptr noundef @.str.4)
  call void (ptr, ...) @_ZN5Yosys3logEPKcz(ptr noundef @.str.12)
  call void (ptr, ...) @_ZN5Yosys3logEPKcz(ptr noundef @.str.13)
  call void (ptr, ...) @_ZN5Yosys3logEPKcz(ptr noundef @.str.14)
  call void (ptr, ...) @_ZN5Yosys3logEPKcz(ptr noundef @.str.4)
  call void (ptr, ...) @_ZN5Yosys3logEPKcz(ptr noundef @.str.15)
  call void (ptr, ...) @_ZN5Yosys3logEPKcz(ptr noundef @.str.16)
  call void (ptr, ...) @_ZN5Yosys3logEPKcz(ptr noundef @.str.14)
  call void (ptr, ...) @_ZN5Yosys3logEPKcz(ptr noundef @.str.4)
  call void (ptr, ...) @_ZN5Yosys3logEPKcz(ptr noundef @.str.17)
  call void (ptr, ...) @_ZN5Yosys3logEPKcz(ptr noundef @.str.18)
  call void (ptr, ...) @_ZN5Yosys3logEPKcz(ptr noundef @.str.14)
  call void (ptr, ...) @_ZN5Yosys3logEPKcz(ptr noundef @.str.4)
  call void (ptr, ...) @_ZN5Yosys3logEPKcz(ptr noundef @.str.19)
  call void (ptr, ...) @_ZN5Yosys3logEPKcz(ptr noundef @.str.20)
  call void (ptr, ...) @_ZN5Yosys3logEPKcz(ptr noundef @.str.4)
  call void (ptr, ...) @_ZN5Yosys3logEPKcz(ptr noundef @.str.21)
  call void (ptr, ...) @_ZN5Yosys3logEPKcz(ptr noundef @.str.22)
  call void (ptr, ...) @_ZN5Yosys3logEPKcz(ptr noundef @.str.4)
  call void (ptr, ...) @_ZN5Yosys3logEPKcz(ptr noundef @.str.23)
  call void (ptr, ...) @_ZN5Yosys3logEPKcz(ptr noundef @.str.24)
  call void (ptr, ...) @_ZN5Yosys3logEPKcz(ptr noundef @.str.4)
  call void (ptr, ...) @_ZN5Yosys3logEPKcz(ptr noundef @.str.25)
  call void (ptr, ...) @_ZN5Yosys3logEPKcz(ptr noundef @.str.26)
  call void (ptr, ...) @_ZN5Yosys3logEPKcz(ptr noundef @.str.27)
  call void (ptr, ...) @_ZN5Yosys3logEPKcz(ptr noundef @.str.4)
  call void (ptr, ...) @_ZN5Yosys3logEPKcz(ptr noundef @.str.28)
  call void (ptr, ...) @_ZN5Yosys3logEPKcz(ptr noundef @.str.29)
  call void (ptr, ...) @_ZN5Yosys3logEPKcz(ptr noundef @.str.27)
  call void (ptr, ...) @_ZN5Yosys3logEPKcz(ptr noundef @.str.4)
  call void (ptr, ...) @_ZN5Yosys3logEPKcz(ptr noundef @.str.30)
  call void (ptr, ...) @_ZN5Yosys3logEPKcz(ptr noundef @.str.31)
  call void (ptr, ...) @_ZN5Yosys3logEPKcz(ptr noundef @.str.4)
  call void (ptr, ...) @_ZN5Yosys3logEPKcz(ptr noundef @.str.32)
  call void (ptr, ...) @_ZN5Yosys3logEPKcz(ptr noundef @.str.33)
  call void (ptr, ...) @_ZN5Yosys3logEPKcz(ptr noundef @.str.4)
  call void (ptr, ...) @_ZN5Yosys3logEPKcz(ptr noundef @.str.34)
  call void (ptr, ...) @_ZN5Yosys3logEPKcz(ptr noundef @.str.35)
  call void (ptr, ...) @_ZN5Yosys3logEPKcz(ptr noundef @.str.36)
  call void (ptr, ...) @_ZN5Yosys3logEPKcz(ptr noundef @.str.4)
  call void (ptr, ...) @_ZN5Yosys3logEPKcz(ptr noundef @.str.37)
  call void (ptr, ...) @_ZN5Yosys3logEPKcz(ptr noundef @.str.38)
  call void (ptr, ...) @_ZN5Yosys3logEPKcz(ptr noundef @.str.4)
  call void (ptr, ...) @_ZN5Yosys3logEPKcz(ptr noundef @.str.39)
  call void (ptr, ...) @_ZN5Yosys3logEPKcz(ptr noundef @.str.40)
  call void (ptr, ...) @_ZN5Yosys3logEPKcz(ptr noundef @.str.4)
  call void (ptr, ...) @_ZN5Yosys3logEPKcz(ptr noundef @.str.41)
  call void (ptr, ...) @_ZN5Yosys3logEPKcz(ptr noundef @.str.42)
  call void (ptr, ...) @_ZN5Yosys3logEPKcz(ptr noundef @.str.43)
  call void (ptr, ...) @_ZN5Yosys3logEPKcz(ptr noundef @.str.4)
  call void (ptr, ...) @_ZN5Yosys3logEPKcz(ptr noundef @.str.44)
  call void (ptr, ...) @_ZN5Yosys3logEPKcz(ptr noundef @.str.45)
  call void (ptr, ...) @_ZN5Yosys3logEPKcz(ptr noundef @.str.46)
  call void (ptr, ...) @_ZN5Yosys3logEPKcz(ptr noundef @.str.4)
  call void (ptr, ...) @_ZN5Yosys3logEPKcz(ptr noundef @.str.47)
  call void (ptr, ...) @_ZN5Yosys3logEPKcz(ptr noundef @.str.48)
  call void (ptr, ...) @_ZN5Yosys3logEPKcz(ptr noundef @.str.4)
  call void (ptr, ...) @_ZN5Yosys3logEPKcz(ptr noundef @.str.49)
  call void (ptr, ...) @_ZN5Yosys3logEPKcz(ptr noundef @.str.50)
  call void (ptr, ...) @_ZN5Yosys3logEPKcz(ptr noundef @.str.4)
  call void (ptr, ...) @_ZN5Yosys3logEPKcz(ptr noundef @.str.51)
  call void (ptr, ...) @_ZN5Yosys3logEPKcz(ptr noundef @.str.52)
  call void (ptr, ...) @_ZN5Yosys3logEPKcz(ptr noundef @.str.4)
  call void (ptr, ...) @_ZN5Yosys3logEPKcz(ptr noundef @.str.53)
  call void (ptr, ...) @_ZN5Yosys3logEPKcz(ptr noundef @.str.54)
  call void (ptr, ...) @_ZN5Yosys3logEPKcz(ptr noundef @.str.55)
  call void (ptr, ...) @_ZN5Yosys3logEPKcz(ptr noundef @.str.56)
  call void (ptr, ...) @_ZN5Yosys3logEPKcz(ptr noundef @.str.4)
  call void (ptr, ...) @_ZN5Yosys3logEPKcz(ptr noundef @.str.57)
  call void (ptr, ...) @_ZN5Yosys3logEPKcz(ptr noundef @.str.58)
  call void (ptr, ...) @_ZN5Yosys3logEPKcz(ptr noundef @.str.59)
  call void (ptr, ...) @_ZN5Yosys3logEPKcz(ptr noundef @.str.60)
  call void (ptr, ...) @_ZN5Yosys3logEPKcz(ptr noundef @.str.4)
  call void (ptr, ...) @_ZN5Yosys3logEPKcz(ptr noundef @.str.4)
  call void (ptr, ...) @_ZN5Yosys3logEPKcz(ptr noundef @.str.61)
  call void @_ZN5Yosys10ScriptPass11help_scriptEv(ptr noundef nonnull align 8 dereferenceable(184) %3)
  call void (ptr, ...) @_ZN5Yosys3logEPKcz(ptr noundef @.str.4)
  ret void
}